target datalayout = "e-m:e-p270:32:32-p271:32:32-p272:64:64-i64:64-i128:128-f80:128-n8:16:32:64-S128"
target triple = "x86_64-pc-linux-gnu"

%"class.llvm::Regex" = type <{ ptr, i32, [4 x i8] }>
%"class.llvm::StringRef" = type { ptr, i64 }
%struct.llvm_regex = type { i32, i64, ptr, ptr }

; Function Attrs: mustprogress nounwind uwtable
define linkonce_odr hidden noundef i32 @_ZN4llvm13to_underlyingINS_5Regex10RegexFlagsEEENSt15underlying_typeIT_E4typeES4_(i32 noundef %0) #0 comdat {
  %2 = alloca i32, align 4
  store i32 %0, ptr %2, align 4
  %3 = load i32, ptr %2, align 4
  ret i32 %3
}

; Function Attrs: mustprogress nounwind uwtable
define linkonce_odr hidden noundef i32 @_ZN4llvm17BitmaskEnumDetail10UnderlyingINS_5Regex10RegexFlagsEEENSt15underlying_typeIT_E4typeES5_(i32 noundef %0) #0 comdat {
  %2 = alloca i32, align 4
  %3 = alloca i32, align 4
  store i32 %0, ptr %2, align 4
  %4 = load i32, ptr %2, align 4
  %5 = call noundef i32 @_ZN4llvm13to_underlyingINS_5Regex10RegexFlagsEEENSt15underlying_typeIT_E4typeES4_(i32 noundef %4)
  store i32 %5, ptr %3, align 4
  %6 = load i32, ptr %3, align 4
  ret i32 %6
}

; Function Attrs: mustprogress nounwind uwtable
define linkonce_odr hidden noundef ptr @_ZNK4llvm9StringRef4dataEv(ptr noundef nonnull align 8 dereferenceable(16) %0) #0 comdat align 2 {
  %2 = alloca ptr, align 8
  store ptr %0, ptr %2, align 8
  %3 = load ptr, ptr %2, align 8
  %4 = getelementptr inbounds nuw %"class.llvm::StringRef", ptr %3, i32 0, i32 0
  %5 = load ptr, ptr %4, align 8
  ret ptr %5
}

; Function Attrs: mustprogress nounwind uwtable
define linkonce_odr hidden noundef i32 @_ZN4llvm17BitmaskEnumDetailanINS_5Regex10RegexFlagsEvEET_S4_S4_(i32 noundef %0, i32 noundef %1) #0 comdat {
  %3 = alloca i32, align 4
  %4 = alloca i32, align 4
  store i32 %0, ptr %3, align 4
  store i32 %1, ptr %4, align 4
  %5 = load i32, ptr %3, align 4
  %6 = call noundef i32 @_ZN4llvm17BitmaskEnumDetail10UnderlyingINS_5Regex10RegexFlagsEEENSt15underlying_typeIT_E4typeES5_(i32 noundef %5)
  %7 = load i32, ptr %4, align 4
  %8 = call noundef i32 @_ZN4llvm17BitmaskEnumDetail10UnderlyingINS_5Regex10RegexFlagsEEENSt15underlying_typeIT_E4typeES5_(i32 noundef %7)
  %9 = and i32 %6, %8
  ret i32 %9
}

; Function Attrs: mustprogress nounwind uwtable
define linkonce_odr hidden noundef ptr @_ZNK4llvm9StringRef3endEv(ptr noundef nonnull align 8 dereferenceable(16) %0) #0 comdat align 2 {
  %2 = alloca ptr, align 8
  store ptr %0, ptr %2, align 8
  %3 = load ptr, ptr %2, align 8
  %4 = getelementptr inbounds nuw %"class.llvm::StringRef", ptr %3, i32 0, i32 0
  %5 = load ptr, ptr %4, align 8
  %6 = getelementptr inbounds nuw %"class.llvm::StringRef", ptr %3, i32 0, i32 1
  %7 = load i64, ptr %6, align 8
  %8 = getelementptr inbounds i8, ptr %5, i64 %7
  ret ptr %8
}

; Function Attrs: mustprogress nounwind uwtable
define dso_local void @_ZN4llvm5RegexC2ENS_9StringRefENS0_10RegexFlagsE(ptr noundef nonnull align 8 dereferenceable(12) %0, ptr %1, i64 %2, i32 noundef %3) unnamed_addr #0 align 2 {
  %5 = alloca %"class.llvm::StringRef", align 8
  %6 = alloca ptr, align 8
  %7 = alloca i32, align 4
  %8 = alloca i32, align 4
  %9 = getelementptr inbounds nuw { ptr, i64 }, ptr %5, i32 0, i32 0
  store ptr %1, ptr %9, align 8
  %10 = getelementptr inbounds nuw { ptr, i64 }, ptr %5, i32 0, i32 1
  store i64 %2, ptr %10, align 8
  store ptr %0, ptr %6, align 8
  store i32 %3, ptr %7, align 4
  %11 = load ptr, ptr %6, align 8
  store i32 0, ptr %8, align 4
  %12 = call noalias noundef nonnull ptr @_Znwm(i64 noundef 32) #8
  call void @llvm.memset.p0.i64(ptr align 16 %12, i8 0, i64 32, i1 false)
  %13 = getelementptr inbounds nuw %"class.llvm::Regex", ptr %11, i32 0, i32 0
  store ptr %12, ptr %13, align 8
  %14 = call noundef ptr @_ZNK4llvm9StringRef3endEv(ptr noundef nonnull align 8 dereferenceable(16) %5)
  %15 = getelementptr inbounds nuw %"class.llvm::Regex", ptr %11, i32 0, i32 0
  %16 = load ptr, ptr %15, align 8
  %17 = getelementptr inbounds nuw %struct.llvm_regex, ptr %16, i32 0, i32 2
  store ptr %14, ptr %17, align 8
  %18 = load i32, ptr %7, align 4
  %19 = call noundef i32 @_ZN4llvm17BitmaskEnumDetailanINS_5Regex10RegexFlagsEvEET_S4_S4_(i32 noundef %18, i32 noundef 1)
  %20 = icmp ne i32 %19, 0
  br i1 %20, label %21, label %24

21:                                               ; preds = %4
  %22 = load i32, ptr %8, align 4
  %23 = or i32 %22, 2
  store i32 %23, ptr %8, align 4
  br label %24

24:                                               ; preds = %21, %4
  %25 = load i32, ptr %7, align 4
  %26 = call noundef i32 @_ZN4llvm17BitmaskEnumDetailanINS_5Regex10RegexFlagsEvEET_S4_S4_(i32 noundef %25, i32 noundef 2)
  %27 = icmp ne i32 %26, 0
  br i1 %27, label %28, label %31

28:                                               ; preds = %24
  %29 = load i32, ptr %8, align 4
  %30 = or i32 %29, 8
  store i32 %30, ptr %8, align 4
  br label %31

31:                                               ; preds = %28, %24
  %32 = load i32, ptr %7, align 4
  %33 = call noundef i32 @_ZN4llvm17BitmaskEnumDetailanINS_5Regex10RegexFlagsEvEET_S4_S4_(i32 noundef %32, i32 noundef 4)
  %34 = icmp ne i32 %33, 0
  br i1 %34, label %38, label %35

35:                                               ; preds = %31
  %36 = load i32, ptr %8, align 4
  %37 = or i32 %36, 1
  store i32 %37, ptr %8, align 4
  br label %38

38:                                               ; preds = %35, %31
  %39 = getelementptr inbounds nuw %"class.llvm::Regex", ptr %11, i32 0, i32 0
  %40 = load ptr, ptr %39, align 8
  %41 = call noundef ptr @_ZNK4llvm9StringRef4dataEv(ptr noundef nonnull align 8 dereferenceable(16) %5)
  %42 = load i32, ptr %8, align 4
  %43 = or i32 %42, 32
  %44 = call i32 @llvm_regcomp(ptr noundef %40, ptr noundef %41, i32 noundef %43)
  %45 = getelementptr inbounds nuw %"class.llvm::Regex", ptr %11, i32 0, i32 1
  store i32 %44, ptr %45, align 8
  ret void
}

; Function Attrs: mustprogress nounwind uwtable
define dso_local void @_ZN4llvm5RegexC2ENS_9StringRefEj(ptr noundef nonnull align 8 dereferenceable(12) %0, ptr %1, i64 %2, i32 noundef %3) unnamed_addr #0 align 2 {
  %5 = alloca %"class.llvm::StringRef", align 8
  %6 = alloca ptr, align 8
  %7 = alloca i32, align 4
  %8 = alloca %"class.llvm::StringRef", align 8
  %9 = getelementptr inbounds nuw { ptr, i64 }, ptr %5, i32 0, i32 0
  store ptr %1, ptr %9, align 8
  %10 = getelementptr inbounds nuw { ptr, i64 }, ptr %5, i32 0, i32 1
  store i64 %2, ptr %10, align 8
  store ptr %0, ptr %6, align 8
  store i32 %3, ptr %7, align 4
  %11 = load ptr, ptr %6, align 8
  call void @llvm.memcpy.p0.p0.i64(ptr align 8 %8, ptr align 8 %5, i64 16, i1 false)
  %12 = load i32, ptr %7, align 4
  %13 = getelementptr inbounds nuw { ptr, i64 }, ptr %8, i32 0, i32 0
  %14 = load ptr, ptr %13, align 8
  %15 = getelementptr inbounds nuw { ptr, i64 }, ptr %8, i32 0, i32 1
  %16 = load i64, ptr %15, align 8
  call void @_ZN4llvm5RegexC2ENS_9StringRefENS0_10RegexFlagsE(ptr noundef nonnull align 8 dereferenceable(12) %11, ptr %14, i64 %16, i32 noundef %12)
  ret void
}