; Function Attrs: mustprogress nounwind uwtable
define dso_local void @_ZN4llvm5RegexC2ENS_9StringRefEj(ptr noundef nonnull writeonly align 8 captures(none) dereferenceable(12) initializes((0, 12)) %0, ptr %1, i64 %2, i32 noundef %3) unnamed_addr #1 align 2 {
  %5 = tail call noalias noundef nonnull dereferenceable(32) ptr @_Znwm(i64 noundef 32) #15
  tail call void @llvm.memset.p0.i64(ptr noundef nonnull align 16 dereferenceable(32) %5, i8 0, i64 32, i1 false)
  store ptr %5, ptr %0, align 8
  %6 = getelementptr inbounds i8, ptr %1, i64 %2
  %7 = getelementptr inbounds nuw i8, ptr %5, i64 16
  store ptr %6, ptr %7, align 8
  %8 = shl i32 %3, 1
  %spec.select.i = and i32 %8, 2
  %9 = shl i32 %3, 2
  %10 = and i32 %9, 8
  %.1.i = or disjoint i32 %spec.select.i, %10
  %11 = lshr i32 %3, 2
  %12 = and i32 %11, 1
  %13 = or disjoint i32 %.1.i, %12
  %14 = xor i32 %13, 33
  %15 = tail call i32 @llvm_regcomp(ptr noundef nonnull %5, ptr noundef %1, i32 noundef %14) #16
  %16 = getelementptr inbounds nuw i8, ptr %0, i64 8
  store i32 %15, ptr %16, align 8
  ret void
}